target datalayout = "e-m:e-p270:32:32-p271:32:32-p272:64:64-i64:64-i128:128-f80:128-n8:16:32:64-S128"
target triple = "x86_64-pc-linux-gnu"

%"class.icu_77::Locale" = type <{ %"class.icu_77::UObject", [12 x i8], [6 x i8], [4 x i8], [2 x i8], i32, [4 x i8], ptr, [157 x i8], [3 x i8], ptr, i8, [7 x i8] }>
%"class.icu_77::UObject" = type { ptr }

; Function Attrs: inlinehint mustprogress nounwind uwtable
define internal noundef signext i8 @_ZL9U_SUCCESS10UErrorCode(i32 noundef %0) #6 {
  %2 = alloca i32, align 4
  store i32 %0, ptr %2, align 4, !tbaa !25
  %3 = load i32, ptr %2, align 4, !tbaa !25
  %4 = icmp sle i32 %3, 0
  %5 = zext i1 %4 to i8
  ret i8 %5
}

; Function Attrs: mustprogress uwtable
define noundef ptr @_ZN6icu_778Collator12makeInstanceERKNS_6LocaleER10UErrorCode(ptr noundef nonnull align 8 dereferenceable(217) %0, ptr noundef nonnull align 4 dereferenceable(4) %1) #3 align 2 personality ptr @__gxx_personality_v0 {
  %3 = alloca ptr, align 8
  %4 = alloca ptr, align 8
  %5 = alloca ptr, align 8
  %6 = alloca ptr, align 8
  %7 = alloca ptr, align 8
  %8 = alloca ptr, align 8
  %9 = alloca i1, align 1
  %10 = alloca ptr, align 8
  %11 = alloca i32, align 4
  %12 = alloca i32, align 4
  store ptr %0, ptr %4, align 8, !tbaa !8
  store ptr %1, ptr %5, align 8, !tbaa !18
  call void @llvm.lifetime.start.p0(i64 8, ptr %6) #14
  %13 = load ptr, ptr %4, align 8, !tbaa !8
  %14 = load ptr, ptr %5, align 8, !tbaa !18
  %15 = call noundef ptr @_ZN6icu_7715CollationLoader13loadTailoringERKNS_6LocaleER10UErrorCode(ptr noundef nonnull align 8 dereferenceable(217) %13, ptr noundef nonnull align 4 dereferenceable(4) %14)
  store ptr %15, ptr %6, align 8, !tbaa !23
  %16 = load ptr, ptr %5, align 8, !tbaa !18
  %17 = load i32, ptr %16, align 4, !tbaa !25
  %18 = call noundef signext i8 @_ZL9U_SUCCESS10UErrorCode(i32 noundef %17)
  %19 = icmp ne i8 %18, 0
  br i1 %19, label %20, label %46

20:                                               ; preds = %2
  call void @llvm.lifetime.start.p0(i64 8, ptr %7) #14
  %21 = call noundef ptr @_ZN6icu_777UMemorynwEm(i64 noundef 272) #14
  %22 = icmp eq ptr %21, null
  store i1 false, ptr %9, align 1
  br i1 %22, label %26, label %23

23:                                               ; preds = %20
  store ptr %21, ptr %8, align 8
  store i1 true, ptr %9, align 1
  %24 = load ptr, ptr %6, align 8, !tbaa !23
  invoke void @_ZN6icu_7717RuleBasedCollatorC1EPKNS_19CollationCacheEntryE(ptr noundef nonnull align 8 dereferenceable(272) %21, ptr noundef %24)
          to label %25 unwind label %33

25:                                               ; preds = %23
  br label %26

26:                                               ; preds = %25, %20
  %27 = phi ptr [ %21, %25 ], [ null, %20 ]
  store ptr %27, ptr %7, align 8, !tbaa !27
  %28 = load ptr, ptr %7, align 8, !tbaa !27
  %29 = icmp ne ptr %28, null
  br i1 %29, label %30, label %41

30:                                               ; preds = %26
  %31 = load ptr, ptr %6, align 8, !tbaa !23
  call void @_ZNK6icu_7712SharedObject9removeRefEv(ptr noundef nonnull align 8 dereferenceable(24) %31)
  %32 = load ptr, ptr %7, align 8, !tbaa !27
  store ptr %32, ptr %3, align 8
  store i32 1, ptr %12, align 4
  br label %43

33:                                               ; preds = %23
  %34 = landingpad { ptr, i32 }
          cleanup
  %35 = extractvalue { ptr, i32 } %34, 0
  store ptr %35, ptr %10, align 8
  %36 = extractvalue { ptr, i32 } %34, 1
  store i32 %36, ptr %11, align 4
  %37 = load i1, ptr %9, align 1
  br i1 %37, label %38, label %40

38:                                               ; preds = %33
  %39 = load ptr, ptr %8, align 8
  call void @_ZN6icu_777UMemorydlEPv(ptr noundef %39) #14
  br label %40

40:                                               ; preds = %38, %33
  call void @llvm.lifetime.end.p0(i64 8, ptr %7) #14
  call void @llvm.lifetime.end.p0(i64 8, ptr %6) #14
  br label %54

41:                                               ; preds = %26
  %42 = load ptr, ptr %5, align 8, !tbaa !18
  store i32 7, ptr %42, align 4, !tbaa !25
  store i32 0, ptr %12, align 4
  br label %43

43:                                               ; preds = %41, %30
  call void @llvm.lifetime.end.p0(i64 8, ptr %7) #14
  %44 = load i32, ptr %12, align 4
  switch i32 %44, label %52 [
    i32 0, label %45
  ]

45:                                               ; preds = %43
  br label %46

46:                                               ; preds = %45, %2
  %47 = load ptr, ptr %6, align 8, !tbaa !23
  %48 = icmp ne ptr %47, null
  br i1 %48, label %49, label %51

49:                                               ; preds = %46
  %50 = load ptr, ptr %6, align 8, !tbaa !23
  call void @_ZNK6icu_7712SharedObject9removeRefEv(ptr noundef nonnull align 8 dereferenceable(24) %50)
  br label %51

51:                                               ; preds = %49, %46
  store ptr null, ptr %3, align 8
  store i32 1, ptr %12, align 4
  br label %52

52:                                               ; preds = %51, %43
  call void @llvm.lifetime.end.p0(i64 8, ptr %6) #14
  %53 = load ptr, ptr %3, align 8
  ret ptr %53

54:                                               ; preds = %40
  %55 = load ptr, ptr %10, align 8
  %56 = load i32, ptr %11, align 4
  %57 = insertvalue { ptr, i32 } poison, ptr %55, 0
  %58 = insertvalue { ptr, i32 } %57, i32 %56, 1
  resume { ptr, i32 } %58
}

; Function Attrs: mustprogress uwtable
define noundef ptr @_ZNK6icu_7718ICUCollatorFactory6createERKNS_13ICUServiceKeyEPKNS_10ICUServiceER10UErrorCode(ptr noundef nonnull align 8 dereferenceable(144) %0, ptr noundef nonnull align 8 dereferenceable(72) %1, ptr noundef %2, ptr noundef nonnull align 4 dereferenceable(4) %3) unnamed_addr #3 align 2 personality ptr @__gxx_personality_v0 {
  %5 = alloca ptr, align 8
  %6 = alloca ptr, align 8
  %7 = alloca ptr, align 8
  %8 = alloca ptr, align 8
  %9 = alloca ptr, align 8
  %10 = alloca ptr, align 8
  %11 = alloca %"class.icu_77::Locale", align 8
  %12 = alloca ptr, align 8
  %13 = alloca i32, align 4
  store ptr %0, ptr %6, align 8, !tbaa !12
  store ptr %1, ptr %7, align 8, !tbaa !14
  store ptr %2, ptr %8, align 8, !tbaa !16
  store ptr %3, ptr %9, align 8, !tbaa !18
  %14 = load ptr, ptr %6, align 8
  %15 = load ptr, ptr %7, align 8, !tbaa !14
  %16 = load ptr, ptr %9, align 8, !tbaa !18
  %17 = load ptr, ptr %14, align 8, !tbaa !19
  %18 = getelementptr inbounds ptr, ptr %17, i64 6
  %19 = load ptr, ptr %18, align 8
  %20 = call noundef signext i8 %19(ptr noundef nonnull align 8 dereferenceable(76) %14, ptr noundef nonnull align 8 dereferenceable(72) %15, ptr noundef nonnull align 4 dereferenceable(4) %16)
  %21 = icmp ne i8 %20, 0
  br i1 %21, label %22, label %37

22:                                               ; preds = %4
  call void @llvm.lifetime.start.p0(i64 8, ptr %10) #14
  %23 = load ptr, ptr %7, align 8, !tbaa !14
  store ptr %23, ptr %10, align 8, !tbaa !21
  call void @llvm.lifetime.start.p0(i64 224, ptr %11) #14
  call void @_ZN6icu_776LocaleC1Ev(ptr noundef nonnull align 8 dereferenceable(217) %11)
  %24 = load ptr, ptr %10, align 8, !tbaa !21
  %25 = load ptr, ptr %24, align 8, !tbaa !19
  %26 = getelementptr inbounds ptr, ptr %25, i64 11
  %27 = load ptr, ptr %26, align 8
  %28 = invoke noundef nonnull align 8 dereferenceable(217) ptr %27(ptr noundef nonnull align 8 dereferenceable(272) %24, ptr noundef nonnull align 8 dereferenceable(217) %11)
          to label %29 unwind label %33

29:                                               ; preds = %22
  %30 = load ptr, ptr %9, align 8, !tbaa !18
  %31 = invoke noundef ptr @_ZN6icu_778Collator12makeInstanceERKNS_6LocaleER10UErrorCode(ptr noundef nonnull align 8 dereferenceable(217) %11, ptr noundef nonnull align 4 dereferenceable(4) %30)
          to label %32 unwind label %33

32:                                               ; preds = %29
  store ptr %31, ptr %5, align 8
  call void @_ZN6icu_776LocaleD1Ev(ptr noundef nonnull align 8 dereferenceable(217) %11) #14
  call void @llvm.lifetime.end.p0(i64 224, ptr %11) #14
  call void @llvm.lifetime.end.p0(i64 8, ptr %10) #14
  br label %38

33:                                               ; preds = %29, %22
  %34 = landingpad { ptr, i32 }
          cleanup
  %35 = extractvalue { ptr, i32 } %34, 0
  store ptr %35, ptr %12, align 8
  %36 = extractvalue { ptr, i32 } %34, 1
  store i32 %36, ptr %13, align 4
  call void @_ZN6icu_776LocaleD1Ev(ptr noundef nonnull align 8 dereferenceable(217) %11) #14
  call void @llvm.lifetime.end.p0(i64 224, ptr %11) #14
  call void @llvm.lifetime.end.p0(i64 8, ptr %10) #14
  br label %40

37:                                               ; preds = %4
  store ptr null, ptr %5, align 8
  br label %38

38:                                               ; preds = %37, %32
  %39 = load ptr, ptr %5, align 8
  ret ptr %39

40:                                               ; preds = %33
  %41 = load ptr, ptr %12, align 8
  %42 = load i32, ptr %13, align 4
  %43 = insertvalue { ptr, i32 } poison, ptr %41, 0
  %44 = insertvalue { ptr, i32 } %43, i32 %42, 1
  resume { ptr, i32 } %44
}