; Function Attrs: mustprogress uwtable
define noundef ptr @_ZNK6icu_7718ICUCollatorFactory6createERKNS_13ICUServiceKeyEPKNS_10ICUServiceER10UErrorCode(ptr noundef nonnull align 8 dereferenceable(144) %0, ptr noundef nonnull align 8 dereferenceable(72) %1, ptr readnone captures(none) %2, ptr noundef nonnull align 4 dereferenceable(4) %3) unnamed_addr #5 align 2 personality ptr @__gxx_personality_v0 {
  %5 = alloca %"class.icu_77::Locale", align 8
  %6 = load ptr, ptr %0, align 8, !tbaa !3
  %7 = getelementptr inbounds nuw i8, ptr %6, i64 48
  %8 = load ptr, ptr %7, align 8
  %9 = tail call noundef signext i8 %8(ptr noundef nonnull align 8 dereferenceable(76) %0, ptr noundef nonnull align 8 dereferenceable(72) %1, ptr noundef nonnull align 4 dereferenceable(4) %3)
  %.not = icmp eq i8 %9, 0
  br i1 %.not, label %28, label %10

10:                                               ; preds = %4
  call void @llvm.lifetime.start.p0(i64 224, ptr nonnull %5) #16
  call void @_ZN6icu_776LocaleC1Ev(ptr noundef nonnull align 8 dereferenceable(217) %5)
  %11 = load ptr, ptr %1, align 8, !tbaa !3
  %12 = getelementptr inbounds nuw i8, ptr %11, i64 88
  %13 = load ptr, ptr %12, align 8
  %14 = invoke noundef nonnull align 8 dereferenceable(217) ptr %13(ptr noundef nonnull align 8 dereferenceable(272) %1, ptr noundef nonnull align 8 dereferenceable(217) %5)
          to label %15 unwind label %26

15:                                               ; preds = %10
  %16 = invoke noundef ptr @_ZN6icu_7715CollationLoader13loadTailoringERKNS_6LocaleER10UErrorCode(ptr noundef nonnull align 8 dereferenceable(217) %5, ptr noundef nonnull align 4 dereferenceable(4) %3)
          to label %.noexc unwind label %26

.noexc:                                           ; preds = %15
  %17 = load i32, ptr %3, align 4, !tbaa !6
  %18 = icmp sgt i32 %17, 0
  br i1 %18, label %25, label %19

19:                                               ; preds = %.noexc
  %20 = call noundef ptr @_ZN6icu_777UMemorynwEm(i64 noundef 272) #16
  %21 = icmp eq ptr %20, null
  br i1 %21, label %.thread23.i, label %22

22:                                               ; preds = %19
  invoke void @_ZN6icu_7717RuleBasedCollatorC1EPKNS_19CollationCacheEntryE(ptr noundef nonnull align 8 dereferenceable(272) %20, ptr noundef %16)
          to label %.sink.split.i unwind label %23

23:                                               ; preds = %22
  %24 = landingpad { ptr, i32 }
          cleanup
  call void @_ZN6icu_777UMemorydlEPv(ptr noundef nonnull %20) #16
  br label %.body

.thread23.i:                                      ; preds = %19
  store i32 7, ptr %3, align 4, !tbaa !6
  br label %25

25:                                               ; preds = %.thread23.i, %.noexc
  %.not19.i = icmp eq ptr %16, null
  br i1 %.not19.i, label %_ZN6icu_778Collator12makeInstanceERKNS_6LocaleER10UErrorCode.exit, label %.sink.split.i

.sink.split.i:                                    ; preds = %25, %22
  %.1.ph.i = phi ptr [ %20, %22 ], [ null, %25 ]
  invoke void @_ZNK6icu_7712SharedObject9removeRefEv(ptr noundef nonnull align 8 dereferenceable(24) %16)
          to label %_ZN6icu_778Collator12makeInstanceERKNS_6LocaleER10UErrorCode.exit unwind label %26

_ZN6icu_778Collator12makeInstanceERKNS_6LocaleER10UErrorCode.exit: ; preds = %25, %.sink.split.i
  %.1.i = phi ptr [ null, %25 ], [ %.1.ph.i, %.sink.split.i ]
  call void @_ZN6icu_776LocaleD1Ev(ptr noundef nonnull align 8 dereferenceable(217) %5) #16
  call void @llvm.lifetime.end.p0(i64 224, ptr nonnull %5) #16
  br label %28

26:                                               ; preds = %.sink.split.i, %15, %10
  %27 = landingpad { ptr, i32 }
          cleanup
  br label %.body

.body:                                            ; preds = %23, %26
  %eh.lpad-body = phi { ptr, i32 } [ %27, %26 ], [ %24, %23 ]
  call void @_ZN6icu_776LocaleD1Ev(ptr noundef nonnull align 8 dereferenceable(217) %5) #16
  call void @llvm.lifetime.end.p0(i64 224, ptr nonnull %5) #16
  resume { ptr, i32 } %eh.lpad-body

28:                                               ; preds = %4, %_ZN6icu_778Collator12makeInstanceERKNS_6LocaleER10UErrorCode.exit
  %.0 = phi ptr [ %.1.i, %_ZN6icu_778Collator12makeInstanceERKNS_6LocaleER10UErrorCode.exit ], [ null, %4 ]
  ret ptr %.0
}